; Function Attrs: mustprogress uwtable
define noundef zeroext i1 @_ZN15MLRenderingData3setEN3vcg20GLMeshAttributesInfo18PRIMITIVE_MODALITYERKNS1_13RenderingAttsINS1_9ATT_NAMESEEE(ptr noundef nonnull align 8 dereferenceable(40) %0, i32 noundef %1, ptr nocapture noundef nonnull readonly align 1 dereferenceable(7) %2) local_unnamed_addr #9 align 2 personality ptr @__gxx_personality_v0 {
  %4 = alloca %"class.vcg::GLMeshAttributesInfo::RenderingAtts", align 1
  call void @llvm.memset.p0.i64(ptr noundef nonnull align 1 dereferenceable(7) %4, i8 0, i64 7, i1 false)
  br label %_ZN3vcg20GLMeshAttributesInfo13RenderingAttsINS0_9ATT_NAMESEEixEj.exit.i

_ZN3vcg20GLMeshAttributesInfo13RenderingAttsINS0_9ATT_NAMESEEixEj.exit.i: ; preds = %_ZN3vcg20GLMeshAttributesInfo13RenderingAttsINS0_9ATT_NAMESEEixEj.exit.i, %3
  %indvars.iv.i = phi i64 [ 0, %3 ], [ %indvars.iv.next.i, %_ZN3vcg20GLMeshAttributesInfo13RenderingAttsINS0_9ATT_NAMESEEixEj.exit.i ]
  %5 = getelementptr inbounds [7 x i8], ptr %2, i64 0, i64 %indvars.iv.i
  %6 = load i8, ptr %5, align 1
  %7 = and i8 %6, 1
  %8 = getelementptr inbounds [7 x i8], ptr %4, i64 0, i64 %indvars.iv.i
  store i8 %7, ptr %8, align 1
  %indvars.iv.next.i = add nuw nsw i64 %indvars.iv.i, 1
  %exitcond.not.i = icmp eq i64 %indvars.iv.next.i, 7
  br i1 %exitcond.not.i, label %_ZN3vcg20GLMeshAttributesInfo13RenderingAttsINS0_9ATT_NAMESEEC2ERKS3_.exit, label %_ZN3vcg20GLMeshAttributesInfo13RenderingAttsINS0_9ATT_NAMESEEixEj.exit.i, !llvm.loop !16

_ZN3vcg20GLMeshAttributesInfo13RenderingAttsINS0_9ATT_NAMESEEC2ERKS3_.exit: ; preds = %_ZN3vcg20GLMeshAttributesInfo13RenderingAttsINS0_9ATT_NAMESEEixEj.exit.i
  call void @_ZN29MLPoliciesStandAloneFunctions45maskMeaninglessAttributesPerPrimitiveModalityEN3vcg20GLMeshAttributesInfo18PRIMITIVE_MODALITYERNS1_13RenderingAttsINS1_9ATT_NAMESEEE(i32 noundef %1, ptr noundef nonnull align 1 dereferenceable(7) %4)
  %9 = call noundef zeroext i1 @_ZN3vcg11PerViewDataI18MLPerViewGLOptionsE3setENS_20GLMeshAttributesInfo18PRIMITIVE_MODALITYERKNS3_13RenderingAttsINS3_9ATT_NAMESEEE(ptr noundef nonnull align 8 dereferenceable(40) %0, i32 noundef %1, ptr noundef nonnull align 1 dereferenceable(7) %4)
  ret i1 %9
}